; Function Attrs: nounwind sspstrong uwtable
define internal noundef i64 @flat_map_i(i64 %0, i64 noundef %1, i32 noundef %2, ptr noundef %3, i64 %4) #0 {
  %6 = tail call i64 @rb_yield_values2(i32 noundef %2, ptr noundef %3) #14
  %7 = tail call i64 @rb_check_array_type(i64 noundef %6) #14
  %8 = icmp eq i64 %7, 4
  br i1 %8, label %9, label %11

9:                                                ; preds = %5
  %10 = tail call i64 @rb_ary_push(i64 noundef %1, i64 noundef %6) #14
  br label %13

11:                                               ; preds = %5
  %12 = tail call i64 @rb_ary_concat(i64 noundef %1, i64 noundef %7) #14
  br label %13

13:                                               ; preds = %11, %9
  ret i64 4
}